target datalayout = "e-m:e-p270:32:32-p271:32:32-p272:64:64-i64:64-i128:128-f80:128-n8:16:32:64-S128"
target triple = "x86_64-pc-linux-gnu"

%struct.darktable_t = type { %struct.dt_codepath_t, i32, i32, ptr, ptr, ptr, ptr, ptr, ptr, ptr, ptr, ptr, ptr, ptr, ptr, ptr, ptr, ptr, ptr, ptr, ptr, ptr, ptr, ptr, ptr, ptr, ptr, ptr, ptr, ptr, [64 x %struct.dt_pthread_mutex_t], %struct.dt_pthread_mutex_t, %struct.dt_pthread_mutex_t, %struct.dt_pthread_mutex_t, %struct.dt_pthread_mutex_t, %struct.dt_pthread_mutex_t, ptr, ptr, ptr, ptr, ptr, ptr, ptr, ptr, ptr, ptr, ptr, ptr, ptr, %struct.dt_lua_state_t, ptr, double, ptr, i32, [47 x i32], i32, i32, ptr, ptr, %struct.dt_sys_resources_t, %struct.dt_backthumb_t, %struct.dt_gimp_t }
%struct.dt_codepath_t = type { i8, [3 x i8] }
%struct.dt_pthread_mutex_t = type { %union.pthread_mutex_t }
%union.pthread_mutex_t = type { %struct.__pthread_mutex_s }
%struct.__pthread_mutex_s = type { i32, i32, i32, i32, i32, i16, i16, %struct.__pthread_internal_list }
%struct.__pthread_internal_list = type { ptr, ptr }
%struct.dt_lua_state_t = type { i32 }
%struct.dt_sys_resources_t = type { i64, i64, ptr, ptr, i32 }
%struct.dt_backthumb_t = type { double, double, i32, i32, i32, i32 }
%struct.dt_gimp_t = type { i32, ptr, ptr, i32, i32 }

@darktable = external global %struct.darktable_t, align 8
@.str.39 = private unnamed_addr constant [40 x i8] c"[signal] raise %s; %s:%d, function %s()\00", align 1
@.str.41 = private unnamed_addr constant [119 x i8] c"generated/home/dtcxzyw/WorkSpace/Projects/compilers/llvm-opt-benchmark/bench/darktable/darktable/src/control/control.c\00", align 1
@.str.44 = private unnamed_addr constant [29 x i8] c"DT_SIGNAL_CONTROL_LOG_REDRAW\00", align 1
@__FUNCTION__.dt_control_log_redraw = private unnamed_addr constant [22 x i8] c"dt_control_log_redraw\00", align 1
@.str.45 = private unnamed_addr constant [31 x i8] c"DT_SIGNAL_CONTROL_TOAST_REDRAW\00", align 1
@__FUNCTION__.dt_control_toast_redraw = private unnamed_addr constant [24 x i8] c"dt_control_toast_redraw\00", align 1

; Function Attrs: nounwind uwtable
define void @dt_control_toast_redraw() #0 {
  br label %1

1:                                                ; preds = %0
  %2 = load i32, ptr getelementptr inbounds nuw (%struct.darktable_t, ptr @darktable, i32 0, i32 53), align 8, !tbaa !175
  %3 = and i32 %2, 1
  %4 = icmp ne i32 %3, 0
  br i1 %4, label %5, label %21

5:                                                ; preds = %1
  %6 = load i32, ptr getelementptr inbounds ([47 x i32], ptr getelementptr inbounds nuw (%struct.darktable_t, ptr @darktable, i32 0, i32 54), i64 0, i64 41), align 4, !tbaa !10
  %7 = icmp ne i32 %6, 0
  br i1 %7, label %8, label %21

8:                                                ; preds = %5
  br label %9

9:                                                ; preds = %8
  %10 = load i32, ptr getelementptr inbounds nuw (%struct.darktable_t, ptr @darktable, i32 0, i32 2), align 8, !tbaa !132
  %11 = and i32 1048576, %10
  %12 = icmp ne i32 %11, 0
  br i1 %12, label %13, label %19

13:                                               ; preds = %9
  %14 = load i32, ptr getelementptr inbounds nuw (%struct.darktable_t, ptr @darktable, i32 0, i32 2), align 8, !tbaa !132
  %15 = xor i32 %14, -1
  %16 = and i32 0, %15
  %17 = icmp ne i32 %16, 0
  br i1 %17, label %19, label %18

18:                                               ; preds = %13
  call void (ptr, ...) @dt_print_ext(ptr noundef @.str.39, ptr noundef @.str.45, ptr noundef @.str.41, i32 noundef 779, ptr noundef @__FUNCTION__.dt_control_toast_redraw)
  br label %19

19:                                               ; preds = %18, %13, %9
  br label %20

20:                                               ; preds = %19
  br label %21

21:                                               ; preds = %20, %5, %1
  %22 = load ptr, ptr getelementptr inbounds nuw (%struct.darktable_t, ptr @darktable, i32 0, i32 13), align 8, !tbaa !176
  call void (ptr, i32, ...) @dt_control_signal_raise(ptr noundef %22, i32 noundef 41)
  br label %23

23:                                               ; preds = %21
  ret void
}

; Function Attrs: nounwind uwtable
define void @dt_control_log_redraw() #0 {
  br label %1

1:                                                ; preds = %0
  %2 = load i32, ptr getelementptr inbounds nuw (%struct.darktable_t, ptr @darktable, i32 0, i32 53), align 8, !tbaa !175
  %3 = and i32 %2, 1
  %4 = icmp ne i32 %3, 0
  br i1 %4, label %5, label %21

5:                                                ; preds = %1
  %6 = load i32, ptr getelementptr inbounds ([47 x i32], ptr getelementptr inbounds nuw (%struct.darktable_t, ptr @darktable, i32 0, i32 54), i64 0, i64 40), align 4, !tbaa !10
  %7 = icmp ne i32 %6, 0
  br i1 %7, label %8, label %21

8:                                                ; preds = %5
  br label %9

9:                                                ; preds = %8
  %10 = load i32, ptr getelementptr inbounds nuw (%struct.darktable_t, ptr @darktable, i32 0, i32 2), align 8, !tbaa !132
  %11 = and i32 1048576, %10
  %12 = icmp ne i32 %11, 0
  br i1 %12, label %13, label %19

13:                                               ; preds = %9
  %14 = load i32, ptr getelementptr inbounds nuw (%struct.darktable_t, ptr @darktable, i32 0, i32 2), align 8, !tbaa !132
  %15 = xor i32 %14, -1
  %16 = and i32 0, %15
  %17 = icmp ne i32 %16, 0
  br i1 %17, label %19, label %18

18:                                               ; preds = %13
  call void (ptr, ...) @dt_print_ext(ptr noundef @.str.39, ptr noundef @.str.44, ptr noundef @.str.41, i32 noundef 774, ptr noundef @__FUNCTION__.dt_control_log_redraw)
  br label %19

19:                                               ; preds = %18, %13, %9
  br label %20

20:                                               ; preds = %19
  br label %21

21:                                               ; preds = %20, %5, %1
  %22 = load ptr, ptr getelementptr inbounds nuw (%struct.darktable_t, ptr @darktable, i32 0, i32 13), align 8, !tbaa !176
  call void (ptr, i32, ...) @dt_control_signal_raise(ptr noundef %22, i32 noundef 40)
  br label %23

23:                                               ; preds = %21
  ret void
}

; Function Attrs: nounwind uwtable
define internal i32 @_redraw_center(ptr noundef %0) #0 {
  %2 = alloca ptr, align 8
  store ptr %0, ptr %2, align 8, !tbaa !6
  call void @dt_control_log_redraw()
  call void @dt_control_toast_redraw()
  ret i32 0
}