; Function Attrs: nounwind uwtable
define internal noundef i32 @_redraw_center(ptr readnone captures(none) %0) #0 {
  %2 = load i32, ptr getelementptr inbounds nuw (i8, ptr @darktable, i64 3128), align 8, !tbaa !147
  %3 = and i32 %2, 1
  %4 = icmp ne i32 %3, 0
  %5 = load i32, ptr getelementptr inbounds nuw (i8, ptr @darktable, i64 3292), align 4
  %6 = icmp ne i32 %5, 0
  %or.cond.i = select i1 %4, i1 %6, i1 false
  br i1 %or.cond.i, label %7, label %dt_control_log_redraw.exit

7:                                                ; preds = %1
  %8 = load i32, ptr getelementptr inbounds nuw (i8, ptr @darktable, i64 8), align 8, !tbaa !115
  %9 = and i32 %8, 1048576
  %.not.i = icmp eq i32 %9, 0
  br i1 %.not.i, label %dt_control_log_redraw.exit, label %10

10:                                               ; preds = %7
  tail call void (ptr, ...) @dt_print_ext(ptr noundef nonnull @.str.39, ptr noundef nonnull @.str.44, ptr noundef nonnull @.str.41, i32 noundef 774, ptr noundef nonnull @__FUNCTION__.dt_control_log_redraw) #13
  br label %dt_control_log_redraw.exit

dt_control_log_redraw.exit:                       ; preds = %1, %7, %10
  %11 = load ptr, ptr getelementptr inbounds nuw (i8, ptr @darktable, i64 96), align 8, !tbaa !148
  tail call void (ptr, i32, ...) @dt_control_signal_raise(ptr noundef %11, i32 noundef 40) #13
  %12 = load i32, ptr getelementptr inbounds nuw (i8, ptr @darktable, i64 3128), align 8, !tbaa !147
  %13 = and i32 %12, 1
  %14 = icmp ne i32 %13, 0
  %15 = load i32, ptr getelementptr inbounds nuw (i8, ptr @darktable, i64 3296), align 8
  %16 = icmp ne i32 %15, 0
  %or.cond.i1 = select i1 %14, i1 %16, i1 false
  br i1 %or.cond.i1, label %17, label %dt_control_toast_redraw.exit

17:                                               ; preds = %dt_control_log_redraw.exit
  %18 = load i32, ptr getelementptr inbounds nuw (i8, ptr @darktable, i64 8), align 8, !tbaa !115
  %19 = and i32 %18, 1048576
  %.not.i2 = icmp eq i32 %19, 0
  br i1 %.not.i2, label %dt_control_toast_redraw.exit, label %20

20:                                               ; preds = %17
  tail call void (ptr, ...) @dt_print_ext(ptr noundef nonnull @.str.39, ptr noundef nonnull @.str.45, ptr noundef nonnull @.str.41, i32 noundef 779, ptr noundef nonnull @__FUNCTION__.dt_control_toast_redraw) #13
  br label %dt_control_toast_redraw.exit

dt_control_toast_redraw.exit:                     ; preds = %dt_control_log_redraw.exit, %17, %20
  %21 = load ptr, ptr getelementptr inbounds nuw (i8, ptr @darktable, i64 96), align 8, !tbaa !148
  tail call void (ptr, i32, ...) @dt_control_signal_raise(ptr noundef %21, i32 noundef 41) #13
  ret i32 0
}